target datalayout = "e-m:e-p270:32:32-p271:32:32-p272:64:64-i64:64-i128:128-f80:128-n8:16:32:64-S128"
target triple = "x86_64-pc-linux-gnu"

%struct.Curl_cftype = type { ptr, i32, i32, ptr, ptr, ptr, ptr, ptr, ptr, ptr, ptr, ptr, ptr, ptr, ptr }
%struct.Curl_sockaddr_ex = type { i32, i32, i32, i32, %union.anon }
%union.anon = type { %struct.Curl_sockaddr_storage }
%struct.Curl_sockaddr_storage = type { %union.anon.0 }
%union.anon.0 = type { %struct.sockaddr_storage }
%struct.sockaddr_storage = type { i16, [118 x i8], i64 }
%struct.Curl_easy = type { i32, i64, ptr, ptr, ptr, %struct.Curl_llist_element, %struct.Curl_llist_element, i32, i32, %struct.Curl_message, %struct.easy_pollset, %struct.Names, ptr, ptr, ptr, %struct.SingleRequest, %struct.UserDefined, ptr, ptr, %struct.Progress, %struct.UrlState, ptr, %struct.PureInfo, %struct.curl_tlssessioninfo }
%struct.Curl_llist_element = type { ptr, ptr, ptr }
%struct.Curl_message = type { %struct.Curl_llist_element, %struct.CURLMsg }
%struct.CURLMsg = type { i32, ptr, %union.anon.3 }
%union.anon.3 = type { ptr }
%struct.easy_pollset = type { [5 x i32], i32, [5 x i8] }
%struct.Names = type { ptr, i32 }
%struct.SingleRequest = type <{ i64, i64, i64, i64, i64, %struct.curltime, i32, i32, i32, i32, i64, i32, i32, %struct.curltime, i32, i32, ptr, i64, i64, ptr, ptr, i64, ptr, %union.anon.4, ptr, [2 x i8], i8, i16, [3 x i8] }>
%struct.curltime = type { i64, i32 }
%union.anon.4 = type { ptr }
%struct.UserDefined = type <{ ptr, ptr, ptr, ptr, ptr, ptr, i16, [6 x i8], i64, i64, i64, ptr, ptr, i64, i16, i16, [4 x i8], ptr, ptr, ptr, ptr, ptr, ptr, ptr, ptr, ptr, ptr, ptr, ptr, ptr, ptr, ptr, ptr, ptr, ptr, ptr, ptr, ptr, ptr, ptr, i32, i32, i32, i32, i64, i64, i64, i64, i64, i64, i64, i64, ptr, ptr, %struct.curl_mimepart, ptr, ptr, i64, i8, i8, i8, [5 x i8], %struct.ssl_config_data, %struct.ssl_config_data, ptr, i16, i8, i8, [4 x i8], %struct.ssl_general_config, i32, i32, i32, [4 x i8], ptr, ptr, i8, [7 x i8], i64, i8, i8, i8, i8, i32, ptr, ptr, ptr, i8, i8, [2 x i8], i32, [80 x ptr], [8 x ptr], i32, i32, i32, [4 x i8], ptr, ptr, ptr, ptr, ptr, i8, [3 x i8], i32, i32, [4 x i8], i64, %struct.Curl_data_priority, ptr, ptr, i64, ptr, ptr, ptr, ptr, ptr, i8, [3 x i8], i32, i8, i8, i56, [6 x i8] }>
%struct.curl_mimepart = type { ptr, ptr, i32, i32, ptr, ptr, ptr, ptr, ptr, ptr, ptr, ptr, ptr, ptr, ptr, i64, %struct.mime_state, ptr, %struct.mime_encoder_state, i64 }
%struct.mime_state = type { i32, ptr, i64 }
%struct.mime_encoder_state = type { i64, i64, i64, [256 x i8] }
%struct.ssl_config_data = type { %struct.ssl_primary_config, i64, ptr, ptr, ptr, ptr, ptr, ptr, ptr, i8 }
%struct.ssl_primary_config = type { ptr, ptr, ptr, ptr, ptr, ptr, ptr, ptr, ptr, ptr, ptr, ptr, i8, i32, i8, i8 }
%struct.ssl_general_config = type { i64, i32 }
%struct.Curl_data_priority = type { ptr, ptr, i32, i8 }
%struct.Progress = type { i64, i64, i64, i64, i64, i64, i32, i32, i64, i64, i64, i64, i64, i64, i64, i64, i64, i64, %struct.curltime, %struct.curltime, %struct.curltime, %struct.curltime, %struct.curltime, i64, %struct.curltime, i64, [6 x i64], [6 x %struct.curltime], i32, i8 }
%struct.UrlState = type { ptr, %struct.curltime, i64, i64, %struct.dynbuf, ptr, ptr, ptr, i64, ptr, i32, i32, i32, ptr, i64, [3 x %struct.tempbuf], i32, i32, ptr, i64, i32, ptr, %struct.digestdata, %struct.digestdata, %struct.auth, %struct.auth, %struct.Curl_async, ptr, %struct.curltime, %struct.Curl_tree, %struct.Curl_llist, [15 x %struct.time_node], ptr, i8, i64, ptr, i64, i64, %struct.Curl_data_priority, ptr, ptr, ptr, %struct.urlpieces, ptr, ptr, ptr, ptr, ptr, i64, %struct.dynbuf, %struct.Curl_llist, [2 x %struct.curl_header], ptr, i32, ptr, %struct.dynamically_allocated_data, i8, i8, i8, i8, i24 }
%struct.tempbuf = type { %struct.dynbuf, i32, i8 }
%struct.digestdata = type { ptr, ptr, ptr, ptr, ptr, ptr, i32, i8, i8 }
%struct.auth = type { i64, i64, i64, i8 }
%struct.Curl_async = type { ptr, ptr, ptr, ptr, i32, i32, i8 }
%struct.Curl_tree = type { ptr, ptr, ptr, ptr, %struct.curltime, ptr }
%struct.time_node = type { %struct.Curl_llist_element, %struct.curltime, i32 }
%struct.urlpieces = type { ptr, ptr, ptr, ptr, ptr, ptr, ptr, ptr }
%struct.dynbuf = type { ptr, i64, i64, i64 }
%struct.Curl_llist = type { ptr, ptr, ptr, i64 }
%struct.curl_header = type { ptr, ptr, i64, i64, i32, ptr }
%struct.dynamically_allocated_data = type { ptr, ptr, ptr, ptr, ptr, ptr, ptr, ptr, ptr, ptr, ptr, ptr, ptr, ptr }
%struct.PureInfo = type { i32, i32, i32, i64, i64, i64, i64, i64, ptr, ptr, i64, i32, [46 x i8], i32, i32, [46 x i8], i32, ptr, i32, %struct.curl_certinfo, i32, i8 }
%struct.curl_certinfo = type { i32, ptr }
%struct.curl_tlssessioninfo = type { i32, ptr }
%struct.Curl_cfilter = type { ptr, ptr, ptr, ptr, i32, i8 }
%struct.cf_socket_ctx = type { i32, %struct.Curl_sockaddr_ex, i32, %struct.bufq, [46 x i8], i32, [46 x i8], i32, %struct.curltime, %struct.curltime, %struct.curltime, i32, i8 }
%struct.bufq = type { ptr, ptr, ptr, ptr, i64, i64, i64, i32 }
%struct.reader_ctx = type { ptr, ptr }

@.str.41 = private unnamed_addr constant [17 x i8] c"Recv failure: %s\00", align 1
@.str.42 = private unnamed_addr constant [34 x i8] c"nw_in_read(len=%zu) -> %d, err=%d\00", align 1

; Function Attrs: nounwind uwtable
define internal i64 @nw_in_read(ptr noundef %0, ptr noundef %1, i64 noundef %2, ptr noundef %3) #0 {
  %5 = alloca ptr, align 8
  %6 = alloca ptr, align 8
  %7 = alloca i64, align 8
  %8 = alloca ptr, align 8
  %9 = alloca ptr, align 8
  %10 = alloca ptr, align 8
  %11 = alloca i64, align 8
  %12 = alloca i32, align 4
  %13 = alloca [256 x i8], align 16
  store ptr %0, ptr %5, align 8
  store ptr %1, ptr %6, align 8
  store i64 %2, ptr %7, align 8
  store ptr %3, ptr %8, align 8
  %14 = load ptr, ptr %5, align 8
  store ptr %14, ptr %9, align 8
  %15 = load ptr, ptr %9, align 8
  %16 = getelementptr inbounds %struct.reader_ctx, ptr %15, i32 0, i32 0
  %17 = load ptr, ptr %16, align 8
  %18 = getelementptr inbounds %struct.Curl_cfilter, ptr %17, i32 0, i32 2
  %19 = load ptr, ptr %18, align 8
  store ptr %19, ptr %10, align 8
  %20 = load ptr, ptr %8, align 8
  store i32 0, ptr %20, align 4
  %21 = load ptr, ptr %10, align 8
  %22 = getelementptr inbounds %struct.cf_socket_ctx, ptr %21, i32 0, i32 2
  %23 = load i32, ptr %22, align 8
  %24 = load ptr, ptr %6, align 8
  %25 = load i64, ptr %7, align 8
  %26 = call i64 @recv(i32 noundef %23, ptr noundef %24, i64 noundef %25, i32 noundef 0)
  store i64 %26, ptr %11, align 8
  %27 = load i64, ptr %11, align 8
  %28 = icmp eq i64 -1, %27
  br i1 %28, label %29, label %57

29:                                               ; preds = %4
  %30 = call ptr @__errno_location() #8
  %31 = load i32, ptr %30, align 4
  store i32 %31, ptr %12, align 4
  %32 = load i32, ptr %12, align 4
  %33 = icmp eq i32 11, %32
  br i1 %33, label %40, label %34

34:                                               ; preds = %29
  %35 = load i32, ptr %12, align 4
  %36 = icmp eq i32 11, %35
  br i1 %36, label %40, label %37

37:                                               ; preds = %34
  %38 = load i32, ptr %12, align 4
  %39 = icmp eq i32 4, %38
  br i1 %39, label %40, label %42

40:                                               ; preds = %37, %34, %29
  %41 = load ptr, ptr %8, align 8
  store i32 81, ptr %41, align 4
  store i64 -1, ptr %11, align 8
  br label %56

42:                                               ; preds = %37
  %43 = load ptr, ptr %9, align 8
  %44 = getelementptr inbounds %struct.reader_ctx, ptr %43, i32 0, i32 1
  %45 = load ptr, ptr %44, align 8
  %46 = load i32, ptr %12, align 4
  %47 = getelementptr inbounds [256 x i8], ptr %13, i64 0, i64 0
  %48 = call ptr @Curl_strerror(i32 noundef %46, ptr noundef %47, i64 noundef 256)
  call void (ptr, ptr, ...) @Curl_failf(ptr noundef %45, ptr noundef @.str.41, ptr noundef %48)
  %49 = load i32, ptr %12, align 4
  %50 = load ptr, ptr %9, align 8
  %51 = getelementptr inbounds %struct.reader_ctx, ptr %50, i32 0, i32 1
  %52 = load ptr, ptr %51, align 8
  %53 = getelementptr inbounds %struct.Curl_easy, ptr %52, i32 0, i32 20
  %54 = getelementptr inbounds %struct.UrlState, ptr %53, i32 0, i32 17
  store i32 %49, ptr %54, align 4
  %55 = load ptr, ptr %8, align 8
  store i32 56, ptr %55, align 4
  store i64 -1, ptr %11, align 8
  br label %56

56:                                               ; preds = %42, %40
  br label %57

57:                                               ; preds = %56, %4
  br label %58

58:                                               ; preds = %57
  %59 = load ptr, ptr %9, align 8
  %60 = getelementptr inbounds %struct.reader_ctx, ptr %59, i32 0, i32 1
  %61 = load ptr, ptr %60, align 8
  %62 = icmp ne ptr %61, null
  br i1 %62, label %63, label %100

63:                                               ; preds = %58
  %64 = load ptr, ptr %9, align 8
  %65 = getelementptr inbounds %struct.reader_ctx, ptr %64, i32 0, i32 1
  %66 = load ptr, ptr %65, align 8
  %67 = getelementptr inbounds %struct.Curl_easy, ptr %66, i32 0, i32 16
  %68 = getelementptr inbounds %struct.UserDefined, ptr %67, i32 0, i32 122
  %69 = load i64, ptr %68, align 2
  %70 = lshr i64 %69, 28
  %71 = and i64 %70, 1
  %72 = trunc i64 %71 to i32
  %73 = icmp ne i32 %72, 0
  br i1 %73, label %74, label %100

74:                                               ; preds = %63
  %75 = load ptr, ptr %9, align 8
  %76 = getelementptr inbounds %struct.reader_ctx, ptr %75, i32 0, i32 0
  %77 = load ptr, ptr %76, align 8
  %78 = icmp ne ptr %77, null
  br i1 %78, label %79, label %100

79:                                               ; preds = %74
  %80 = load ptr, ptr %9, align 8
  %81 = getelementptr inbounds %struct.reader_ctx, ptr %80, i32 0, i32 0
  %82 = load ptr, ptr %81, align 8
  %83 = getelementptr inbounds %struct.Curl_cfilter, ptr %82, i32 0, i32 0
  %84 = load ptr, ptr %83, align 8
  %85 = getelementptr inbounds %struct.Curl_cftype, ptr %84, i32 0, i32 2
  %86 = load i32, ptr %85, align 4
  %87 = icmp sge i32 %86, 1
  br i1 %87, label %88, label %100

88:                                               ; preds = %79
  %89 = load ptr, ptr %9, align 8
  %90 = getelementptr inbounds %struct.reader_ctx, ptr %89, i32 0, i32 1
  %91 = load ptr, ptr %90, align 8
  %92 = load ptr, ptr %9, align 8
  %93 = getelementptr inbounds %struct.reader_ctx, ptr %92, i32 0, i32 0
  %94 = load ptr, ptr %93, align 8
  %95 = load i64, ptr %7, align 8
  %96 = load i64, ptr %11, align 8
  %97 = trunc i64 %96 to i32
  %98 = load ptr, ptr %8, align 8
  %99 = load i32, ptr %98, align 4
  call void (ptr, ptr, ptr, ...) @Curl_trc_cf_infof(ptr noundef %91, ptr noundef %94, ptr noundef @.str.42, i64 noundef %95, i32 noundef %97, i32 noundef %99)
  br label %100

100:                                              ; preds = %88, %79, %74, %63, %58
  br label %101

101:                                              ; preds = %100
  %102 = load i64, ptr %11, align 8
  ret i64 %102
}