; Function Attrs: nounwind uwtable
define internal i64 @nw_in_read(ptr noundef readonly captures(none) %0, ptr noundef %1, i64 noundef %2, ptr noundef captures(none) initializes((0, 4)) %3) #2 {
  %5 = alloca [256 x i8], align 16
  %6 = load ptr, ptr %0, align 8
  %7 = getelementptr inbounds nuw i8, ptr %6, i64 16
  %8 = load ptr, ptr %7, align 8
  store i32 0, ptr %3, align 4
  %9 = getelementptr inbounds nuw i8, ptr %8, i64 152
  %10 = load i32, ptr %9, align 8
  %11 = tail call i64 @recv(i32 noundef %10, ptr noundef %1, i64 noundef %2, i32 noundef 0) #13
  %12 = icmp eq i64 %11, -1
  br i1 %12, label %13, label %22

13:                                               ; preds = %4
  %14 = tail call ptr @__errno_location() #14
  %15 = load i32, ptr %14, align 4
  switch i32 %15, label %16 [
    i32 11, label %.sink.split
    i32 4, label %.sink.split
  ]

16:                                               ; preds = %13
  %17 = getelementptr inbounds nuw i8, ptr %0, i64 8
  %18 = load ptr, ptr %17, align 8
  %19 = call ptr @Curl_strerror(i32 noundef %15, ptr noundef nonnull %5, i64 noundef 256) #13
  call void (ptr, ptr, ...) @Curl_failf(ptr noundef %18, ptr noundef nonnull @.str.41, ptr noundef %19) #13
  %20 = load ptr, ptr %17, align 8
  %21 = getelementptr inbounds nuw i8, ptr %20, i64 3340
  store i32 %15, ptr %21, align 4
  br label %.sink.split

.sink.split:                                      ; preds = %13, %13, %16
  %.sink = phi i32 [ 56, %16 ], [ 81, %13 ], [ 81, %13 ]
  store i32 %.sink, ptr %3, align 4
  br label %22

22:                                               ; preds = %.sink.split, %4
  %23 = getelementptr inbounds nuw i8, ptr %0, i64 8
  %24 = load ptr, ptr %23, align 8
  %.not = icmp eq ptr %24, null
  br i1 %.not, label %39, label %25

25:                                               ; preds = %22
  %26 = getelementptr inbounds nuw i8, ptr %24, i64 2642
  %27 = load i64, ptr %26, align 2
  %28 = and i64 %27, 268435456
  %.not32 = icmp eq i64 %28, 0
  br i1 %.not32, label %39, label %29

29:                                               ; preds = %25
  %30 = load ptr, ptr %0, align 8
  %.not33 = icmp eq ptr %30, null
  br i1 %.not33, label %39, label %31

31:                                               ; preds = %29
  %32 = load ptr, ptr %30, align 8
  %33 = getelementptr inbounds nuw i8, ptr %32, i64 12
  %34 = load i32, ptr %33, align 4
  %35 = icmp sgt i32 %34, 0
  br i1 %35, label %36, label %39

36:                                               ; preds = %31
  %37 = trunc i64 %11 to i32
  %38 = load i32, ptr %3, align 4
  call void (ptr, ptr, ptr, ...) @Curl_trc_cf_infof(ptr noundef nonnull %24, ptr noundef nonnull %30, ptr noundef nonnull @.str.42, i64 noundef %2, i32 noundef %37, i32 noundef %38) #13
  br label %39

39:                                               ; preds = %22, %25, %29, %31, %36
  ret i64 %11
}